; Function Attrs: mustprogress nofree norecurse nosync nounwind willreturn memory(argmem: readwrite) uwtable
define range(i32 0, 2049) i32 @png_get_sRGB(ptr noalias noundef readnone %0, ptr noalias noundef readonly %1, ptr noundef writeonly %2) local_unnamed_addr #3 {
  %4 = icmp ne ptr %0, null
  %5 = icmp ne ptr %1, null
  %or.cond = and i1 %4, %5
  br i1 %or.cond, label %6, label %16

6:                                                ; preds = %3
  %7 = getelementptr inbounds i8, ptr %1, i64 8
  %8 = load i32, ptr %7, align 8
  %9 = and i32 %8, 2048
  %10 = icmp ne i32 %9, 0
  %11 = icmp ne ptr %2, null
  %or.cond3 = and i1 %11, %10
  br i1 %or.cond3, label %12, label %16

12:                                               ; preds = %6
  %13 = getelementptr inbounds i8, ptr %1, i64 124
  %14 = load i16, ptr %13, align 4
  %15 = zext i16 %14 to i32
  store i32 %15, ptr %2, align 4
  br label %16

16:                                               ; preds = %3, %6, %12
  %.0 = phi i32 [ 2048, %12 ], [ 0, %6 ], [ 0, %3 ]
  ret i32 %.0
}